; Function Attrs: mustprogress uwtable
define internal fastcc void @_ZN4leanL20cache_specializationERKNS_16elab_environmentERKNS_4exprERKNS_4nameE(ptr dead_on_unwind noalias nonnull writable writeonly align 8 captures(none) initializes((0, 8)) %0, ptr noundef nonnull readonly align 8 captures(none) dereferenceable(8) %1, ptr noundef nonnull readonly align 8 captures(none) dereferenceable(8) %2, ptr noundef nonnull readonly align 8 captures(none) dereferenceable(8) %3) unnamed_addr #0 {
  %5 = load ptr, ptr %1, align 8, !tbaa !3
  %6 = ptrtoint ptr %5 to i64
  %7 = and i64 %6, 1
  %.not.i.i = icmp eq i64 %7, 0
  br i1 %.not.i.i, label %8, label %_ZNK4lean10object_ref10to_obj_argEv.exit

8:                                                ; preds = %4
  %.val.i.i.i = load i32, ptr %5, align 4, !tbaa !8
  %9 = icmp sgt i32 %.val.i.i.i, 0
  br i1 %9, label %10, label %12, !prof !11

10:                                               ; preds = %8
  %11 = add nuw nsw i32 %.val.i.i.i, 1
  store i32 %11, ptr %5, align 4, !tbaa !8
  br label %_ZNK4lean10object_ref10to_obj_argEv.exit

12:                                               ; preds = %8
  %.not.i.i.i = icmp eq i32 %.val.i.i.i, 0
  br i1 %.not.i.i.i, label %_ZNK4lean10object_ref10to_obj_argEv.exit, label %13

13:                                               ; preds = %12
  tail call void @lean_inc_ref_cold(ptr noundef nonnull %5)
  %.pre.i = load ptr, ptr %1, align 8, !tbaa !3
  br label %_ZNK4lean10object_ref10to_obj_argEv.exit

_ZNK4lean10object_ref10to_obj_argEv.exit:         ; preds = %4, %10, %12, %13
  %14 = phi ptr [ %5, %4 ], [ %5, %10 ], [ %5, %12 ], [ %.pre.i, %13 ]
  %15 = load ptr, ptr %2, align 8, !tbaa !3
  %16 = ptrtoint ptr %15 to i64
  %17 = and i64 %16, 1
  %.not.i.i3 = icmp eq i64 %17, 0
  br i1 %.not.i.i3, label %18, label %_ZNK4lean10object_ref10to_obj_argEv.exit7

18:                                               ; preds = %_ZNK4lean10object_ref10to_obj_argEv.exit
  %.val.i.i.i4 = load i32, ptr %15, align 4, !tbaa !8
  %19 = icmp sgt i32 %.val.i.i.i4, 0
  br i1 %19, label %20, label %22, !prof !11

20:                                               ; preds = %18
  %21 = add nuw nsw i32 %.val.i.i.i4, 1
  store i32 %21, ptr %15, align 4, !tbaa !8
  br label %_ZNK4lean10object_ref10to_obj_argEv.exit7

22:                                               ; preds = %18
  %.not.i.i.i5 = icmp eq i32 %.val.i.i.i4, 0
  br i1 %.not.i.i.i5, label %_ZNK4lean10object_ref10to_obj_argEv.exit7, label %23

23:                                               ; preds = %22
  tail call void @lean_inc_ref_cold(ptr noundef nonnull %15)
  %.pre.i6 = load ptr, ptr %2, align 8, !tbaa !3
  br label %_ZNK4lean10object_ref10to_obj_argEv.exit7

_ZNK4lean10object_ref10to_obj_argEv.exit7:        ; preds = %_ZNK4lean10object_ref10to_obj_argEv.exit, %20, %22, %23
  %24 = phi ptr [ %15, %_ZNK4lean10object_ref10to_obj_argEv.exit ], [ %15, %20 ], [ %15, %22 ], [ %.pre.i6, %23 ]
  %25 = load ptr, ptr %3, align 8, !tbaa !3
  %26 = ptrtoint ptr %25 to i64
  %27 = and i64 %26, 1
  %.not.i.i8 = icmp eq i64 %27, 0
  br i1 %.not.i.i8, label %28, label %_ZNK4lean10object_ref10to_obj_argEv.exit12

28:                                               ; preds = %_ZNK4lean10object_ref10to_obj_argEv.exit7
  %.val.i.i.i9 = load i32, ptr %25, align 4, !tbaa !8
  %29 = icmp sgt i32 %.val.i.i.i9, 0
  br i1 %29, label %30, label %32, !prof !11

30:                                               ; preds = %28
  %31 = add nuw nsw i32 %.val.i.i.i9, 1
  store i32 %31, ptr %25, align 4, !tbaa !8
  br label %_ZNK4lean10object_ref10to_obj_argEv.exit12

32:                                               ; preds = %28
  %.not.i.i.i10 = icmp eq i32 %.val.i.i.i9, 0
  br i1 %.not.i.i.i10, label %_ZNK4lean10object_ref10to_obj_argEv.exit12, label %33

33:                                               ; preds = %32
  tail call void @lean_inc_ref_cold(ptr noundef nonnull %25)
  %.pre.i11 = load ptr, ptr %3, align 8, !tbaa !3
  br label %_ZNK4lean10object_ref10to_obj_argEv.exit12

_ZNK4lean10object_ref10to_obj_argEv.exit12:       ; preds = %_ZNK4lean10object_ref10to_obj_argEv.exit7, %30, %32, %33
  %34 = phi ptr [ %25, %_ZNK4lean10object_ref10to_obj_argEv.exit7 ], [ %25, %30 ], [ %25, %32 ], [ %.pre.i11, %33 ]
  %35 = tail call ptr @lean_cache_specialization(ptr noundef %14, ptr noundef %24, ptr noundef %34)
  store ptr %35, ptr %0, align 8, !tbaa !3
  ret void
}